
MegaTest.elf:     file format elf32-avr

Sections:
Idx Name          Size      VMA       LMA       File off  Algn
  0 .data         00000008  00800200  00000326  000003ba  2**0
                  CONTENTS, ALLOC, LOAD, DATA
  1 .text         00000326  00000000  00000000  00000094  2**1
                  CONTENTS, ALLOC, LOAD, READONLY, CODE
  2 .bss          00000005  00800208  00800208  000003c2  2**0
                  ALLOC
  3 .comment      00000030  00000000  00000000  000003c2  2**0
                  CONTENTS, READONLY
  4 .debug_aranges 00000088  00000000  00000000  000003f2  2**0
                  CONTENTS, READONLY, DEBUGGING
  5 .debug_info   000007d5  00000000  00000000  0000047a  2**0
                  CONTENTS, READONLY, DEBUGGING
  6 .debug_abbrev 0000043a  00000000  00000000  00000c4f  2**0
                  CONTENTS, READONLY, DEBUGGING
  7 .debug_line   0000039e  00000000  00000000  00001089  2**0
                  CONTENTS, READONLY, DEBUGGING
  8 .debug_frame  0000010c  00000000  00000000  00001428  2**2
                  CONTENTS, READONLY, DEBUGGING
  9 .debug_str    000003df  00000000  00000000  00001534  2**0
                  CONTENTS, READONLY, DEBUGGING
 10 .debug_loc    00000229  00000000  00000000  00001913  2**0
                  CONTENTS, READONLY, DEBUGGING
 11 .debug_ranges 00000068  00000000  00000000  00001b3c  2**0
                  CONTENTS, READONLY, DEBUGGING

Disassembly of section .text:

00000000 <__vectors>:
   0:	73 c0       	rjmp	.+230    	; 0xe8 <__dtors_end>
   2:	00 00       	nop
   4:	9f c0       	rjmp	.+318    	; 0x144 <__bad_interrupt>
   6:	00 00       	nop
   8:	9d c0       	rjmp	.+314    	; 0x144 <__bad_interrupt>
   a:	00 00       	nop
   c:	9b c0       	rjmp	.+310    	; 0x144 <__bad_interrupt>
   e:	00 00       	nop
  10:	99 c0       	rjmp	.+306    	; 0x144 <__bad_interrupt>
  12:	00 00       	nop
  14:	97 c0       	rjmp	.+302    	; 0x144 <__bad_interrupt>
  16:	00 00       	nop
  18:	95 c0       	rjmp	.+298    	; 0x144 <__bad_interrupt>
  1a:	00 00       	nop
  1c:	93 c0       	rjmp	.+294    	; 0x144 <__bad_interrupt>
  1e:	00 00       	nop
  20:	91 c0       	rjmp	.+290    	; 0x144 <__bad_interrupt>
  22:	00 00       	nop
  24:	8f c0       	rjmp	.+286    	; 0x144 <__bad_interrupt>
  26:	00 00       	nop
  28:	8d c0       	rjmp	.+282    	; 0x144 <__bad_interrupt>
  2a:	00 00       	nop
  2c:	8b c0       	rjmp	.+278    	; 0x144 <__bad_interrupt>
  2e:	00 00       	nop
  30:	89 c0       	rjmp	.+274    	; 0x144 <__bad_interrupt>
  32:	00 00       	nop
  34:	87 c0       	rjmp	.+270    	; 0x144 <__bad_interrupt>
  36:	00 00       	nop
  38:	85 c0       	rjmp	.+266    	; 0x144 <__bad_interrupt>
  3a:	00 00       	nop
  3c:	83 c0       	rjmp	.+262    	; 0x144 <__bad_interrupt>
  3e:	00 00       	nop
  40:	81 c0       	rjmp	.+258    	; 0x144 <__bad_interrupt>
  42:	00 00       	nop
  44:	b3 c0       	rjmp	.+358    	; 0x1ac <__vector_17>
  46:	00 00       	nop
  48:	7d c0       	rjmp	.+250    	; 0x144 <__bad_interrupt>
  4a:	00 00       	nop
  4c:	7b c0       	rjmp	.+246    	; 0x144 <__bad_interrupt>
  4e:	00 00       	nop
  50:	79 c0       	rjmp	.+242    	; 0x144 <__bad_interrupt>
  52:	00 00       	nop
  54:	77 c0       	rjmp	.+238    	; 0x144 <__bad_interrupt>
  56:	00 00       	nop
  58:	75 c0       	rjmp	.+234    	; 0x144 <__bad_interrupt>
  5a:	00 00       	nop
  5c:	73 c0       	rjmp	.+230    	; 0x144 <__bad_interrupt>
  5e:	00 00       	nop
  60:	71 c0       	rjmp	.+226    	; 0x144 <__bad_interrupt>
  62:	00 00       	nop
  64:	6f c0       	rjmp	.+222    	; 0x144 <__bad_interrupt>
  66:	00 00       	nop
  68:	6d c0       	rjmp	.+218    	; 0x144 <__bad_interrupt>
  6a:	00 00       	nop
  6c:	6b c0       	rjmp	.+214    	; 0x144 <__bad_interrupt>
  6e:	00 00       	nop
  70:	69 c0       	rjmp	.+210    	; 0x144 <__bad_interrupt>
  72:	00 00       	nop
  74:	67 c0       	rjmp	.+206    	; 0x144 <__bad_interrupt>
  76:	00 00       	nop
  78:	65 c0       	rjmp	.+202    	; 0x144 <__bad_interrupt>
  7a:	00 00       	nop
  7c:	63 c0       	rjmp	.+198    	; 0x144 <__bad_interrupt>
  7e:	00 00       	nop
  80:	61 c0       	rjmp	.+194    	; 0x144 <__bad_interrupt>
  82:	00 00       	nop
  84:	5f c0       	rjmp	.+190    	; 0x144 <__bad_interrupt>
  86:	00 00       	nop
  88:	5d c0       	rjmp	.+186    	; 0x144 <__bad_interrupt>
  8a:	00 00       	nop
  8c:	5b c0       	rjmp	.+182    	; 0x144 <__bad_interrupt>
  8e:	00 00       	nop
  90:	59 c0       	rjmp	.+178    	; 0x144 <__bad_interrupt>
  92:	00 00       	nop
  94:	57 c0       	rjmp	.+174    	; 0x144 <__bad_interrupt>
  96:	00 00       	nop
  98:	55 c0       	rjmp	.+170    	; 0x144 <__bad_interrupt>
  9a:	00 00       	nop
  9c:	53 c0       	rjmp	.+166    	; 0x144 <__bad_interrupt>
  9e:	00 00       	nop
  a0:	51 c0       	rjmp	.+162    	; 0x144 <__bad_interrupt>
  a2:	00 00       	nop
  a4:	4f c0       	rjmp	.+158    	; 0x144 <__bad_interrupt>
  a6:	00 00       	nop
  a8:	4d c0       	rjmp	.+154    	; 0x144 <__bad_interrupt>
  aa:	00 00       	nop
  ac:	4b c0       	rjmp	.+150    	; 0x144 <__bad_interrupt>
  ae:	00 00       	nop
  b0:	49 c0       	rjmp	.+146    	; 0x144 <__bad_interrupt>
  b2:	00 00       	nop
  b4:	47 c0       	rjmp	.+142    	; 0x144 <__bad_interrupt>
  b6:	00 00       	nop
  b8:	45 c0       	rjmp	.+138    	; 0x144 <__bad_interrupt>
  ba:	00 00       	nop
  bc:	43 c0       	rjmp	.+134    	; 0x144 <__bad_interrupt>
  be:	00 00       	nop
  c0:	41 c0       	rjmp	.+130    	; 0x144 <__bad_interrupt>
  c2:	00 00       	nop
  c4:	3f c0       	rjmp	.+126    	; 0x144 <__bad_interrupt>
  c6:	00 00       	nop
  c8:	3d c0       	rjmp	.+122    	; 0x144 <__bad_interrupt>
  ca:	00 00       	nop
  cc:	3b c0       	rjmp	.+118    	; 0x144 <__bad_interrupt>
  ce:	00 00       	nop
  d0:	39 c0       	rjmp	.+114    	; 0x144 <__bad_interrupt>
  d2:	00 00       	nop
  d4:	37 c0       	rjmp	.+110    	; 0x144 <__bad_interrupt>
  d6:	00 00       	nop
  d8:	35 c0       	rjmp	.+106    	; 0x144 <__bad_interrupt>
  da:	00 00       	nop
  dc:	33 c0       	rjmp	.+102    	; 0x144 <__bad_interrupt>
  de:	00 00       	nop
  e0:	31 c0       	rjmp	.+98     	; 0x144 <__bad_interrupt>
	...

000000e4 <__ctors_start>:
  e4:	f8 00       	.word	0x00f8	; ????

000000e6 <__ctors_end>:
  e6:	fe 00       	.word	0x00fe	; ????

000000e8 <__dtors_end>:
  e8:	11 24       	eor	r1, r1
  ea:	1f be       	out	0x3f, r1	; 63
  ec:	cf ef       	ldi	r28, 0xFF	; 255
  ee:	d1 e2       	ldi	r29, 0x21	; 33
  f0:	de bf       	out	0x3e, r29	; 62
  f2:	cd bf       	out	0x3d, r28	; 61
  f4:	00 e0       	ldi	r16, 0x00	; 0
  f6:	0c bf       	out	0x3c, r16	; 60

000000f8 <__do_copy_data>:
  f8:	12 e0       	ldi	r17, 0x02	; 2
  fa:	a0 e0       	ldi	r26, 0x00	; 0
  fc:	b2 e0       	ldi	r27, 0x02	; 2
  fe:	e6 e2       	ldi	r30, 0x26	; 38
 100:	f3 e0       	ldi	r31, 0x03	; 3
 102:	00 e0       	ldi	r16, 0x00	; 0
 104:	0b bf       	out	0x3b, r16	; 59
 106:	02 c0       	rjmp	.+4      	; 0x10c <__do_copy_data+0x14>
 108:	07 90       	elpm	r0, Z+
 10a:	0d 92       	st	X+, r0
 10c:	a8 30       	cpi	r26, 0x08	; 8
 10e:	b1 07       	cpc	r27, r17
 110:	d9 f7       	brne	.-10     	; 0x108 <__do_copy_data+0x10>

00000112 <__do_clear_bss>:
 112:	22 e0       	ldi	r18, 0x02	; 2
 114:	a8 e0       	ldi	r26, 0x08	; 8
 116:	b2 e0       	ldi	r27, 0x02	; 2
 118:	01 c0       	rjmp	.+2      	; 0x11c <.do_clear_bss_start>

0000011a <.do_clear_bss_loop>:
 11a:	1d 92       	st	X+, r1

0000011c <.do_clear_bss_start>:
 11c:	ad 30       	cpi	r26, 0x0D	; 13
 11e:	b2 07       	cpc	r27, r18
 120:	e1 f7       	brne	.-8      	; 0x11a <.do_clear_bss_loop>

00000122 <__do_global_ctors>:
 122:	10 e0       	ldi	r17, 0x00	; 0
 124:	c6 ee       	ldi	r28, 0xE6	; 230
 126:	d0 e0       	ldi	r29, 0x00	; 0
 128:	00 e0       	ldi	r16, 0x00	; 0
 12a:	05 c0       	rjmp	.+10     	; 0x136 <__do_global_ctors+0x14>
 12c:	22 97       	sbiw	r28, 0x02	; 2
 12e:	01 09       	sbc	r16, r1
 130:	fe 01       	movw	r30, r28
 132:	0b bf       	out	0x3b, r16	; 59
 134:	e3 d0       	rcall	.+454    	; 0x2fc <__tablejump_elpm__>
 136:	c4 3e       	cpi	r28, 0xE4	; 228
 138:	d1 07       	cpc	r29, r17
 13a:	80 e0       	ldi	r24, 0x00	; 0
 13c:	08 07       	cpc	r16, r24
 13e:	b1 f7       	brne	.-20     	; 0x12c <__do_global_ctors+0xa>
 140:	13 d0       	rcall	.+38     	; 0x168 <main>
 142:	e0 c0       	rjmp	.+448    	; 0x304 <__do_global_dtors>

00000144 <__bad_interrupt>:
 144:	5d cf       	rjmp	.-326    	; 0x0 <__vectors>

00000146 <_Z10initTimer1v>:
//sei();										// Set I-Bit in status register (SREG).
//OCR0A = 16;									// For 1ms Output Compare Register 
//}

void initTimer1(){						// 16 Bit Timer
	  DDRB |= (1<<PB4);
 146:	24 9a       	sbi	0x04, 4	; 4
	TCCR1B |= (1 << WGM12)|(1 << CS12) | (1 << CS10);	//prescalar at 1024 and Set CTC MODE siehe datenBlatt 
 148:	e1 e8       	ldi	r30, 0x81	; 129
 14a:	f0 e0       	ldi	r31, 0x00	; 0
 14c:	80 81       	ld	r24, Z
 14e:	8d 60       	ori	r24, 0x0D	; 13
 150:	80 83       	st	Z, r24
	sei();												// Set I-Bit in status register (SREG).
 152:	78 94       	sei
	OCR1A = 156;										// For 10ms Output Compare Register 
 154:	8c e9       	ldi	r24, 0x9C	; 156
 156:	90 e0       	ldi	r25, 0x00	; 0
 158:	90 93 89 00 	sts	0x0089, r25
 15c:	80 93 88 00 	sts	0x0088, r24
	TIMSK1 = (1 << OCIE1A);								// Set Timer Interrupt Mask
 160:	82 e0       	ldi	r24, 0x02	; 2
 162:	80 93 6f 00 	sts	0x006F, r24
 166:	08 95       	ret

00000168 <main>:
											
}


int main(void)
{	  DDRB |= (1<<PB7); // LED ON/OFF Arduino PIN 13
 168:	27 9a       	sbi	0x04, 7	; 4
	//Servo servo1_2(90);
	//servo1_2.initTimer1PWM();
	
	//initTimer0();
	initTimer1();
 16a:	ed df       	rcall	.-38     	; 0x146 <_Z10initTimer1v>
	
		print.Init_USART();
 16c:	88 e0       	ldi	r24, 0x08	; 8
 16e:	92 e0       	ldi	r25, 0x02	; 2
 170:	6b d0       	rcall	.+214    	; 0x248 <_ZN10SerialTxRx10Init_USARTEv>
	
	
	
	while(1)
	{
		u8TempData = print.USART_receive();
 172:	88 e0       	ldi	r24, 0x08	; 8
 174:	92 e0       	ldi	r25, 0x02	; 2
 176:	79 d0       	rcall	.+242    	; 0x26a <_ZN10SerialTxRx13USART_receiveEv>
		u8TempData++;
 178:	61 e0       	ldi	r22, 0x01	; 1
 17a:	68 0f       	add	r22, r24
 17c:	60 93 0a 02 	sts	0x020A, r22
		print.USART_send(u8TempData);
 180:	88 e0       	ldi	r24, 0x08	; 8
 182:	92 e0       	ldi	r25, 0x02	; 2
 184:	7c d0       	rcall	.+248    	; 0x27e <_ZN10SerialTxRx10USART_sendEh>
		print.USART_send('\n');
 186:	6a e0       	ldi	r22, 0x0A	; 10
 188:	88 e0       	ldi	r24, 0x08	; 8
 18a:	92 e0       	ldi	r25, 0x02	; 2
 18c:	78 d0       	rcall	.+240    	; 0x27e <_ZN10SerialTxRx10USART_sendEh>
		print.USART_putstring(Servo0);
 18e:	60 e0       	ldi	r22, 0x00	; 0
 190:	72 e0       	ldi	r23, 0x02	; 2
 192:	88 e0       	ldi	r24, 0x08	; 8
 194:	92 e0       	ldi	r25, 0x02	; 2
 196:	7b d0       	rcall	.+246    	; 0x28e <_ZN10SerialTxRx15USART_putstringEPc>
	#else
		//round up by default
		__ticks_dc = (uint32_t)(ceil(fabs(__tmp)));
	#endif

	__builtin_avr_delay_cycles(__ticks_dc);
 198:	2f ef       	ldi	r18, 0xFF	; 255
 19a:	83 ec       	ldi	r24, 0xC3	; 195
 19c:	99 e0       	ldi	r25, 0x09	; 9
 19e:	21 50       	subi	r18, 0x01	; 1
 1a0:	80 40       	sbci	r24, 0x00	; 0
 1a2:	90 40       	sbci	r25, 0x00	; 0
 1a4:	e1 f7       	brne	.-8      	; 0x19e <main+0x36>
 1a6:	00 c0       	rjmp	.+0      	; 0x1a8 <main+0x40>
 1a8:	00 00       	nop
 1aa:	e3 cf       	rjmp	.-58     	; 0x172 <main+0xa>

000001ac <__vector_17>:
	}
}	// END OF Interrupt Timer0
*/

ISR(TIMER1_COMPA_vect)    
{
 1ac:	1f 92       	push	r1
 1ae:	0f 92       	push	r0
 1b0:	0f b6       	in	r0, 0x3f	; 63
 1b2:	0f 92       	push	r0
 1b4:	11 24       	eor	r1, r1
 1b6:	8f 93       	push	r24
 1b8:	9f 93       	push	r25
	extraTime1++;
 1ba:	80 91 0b 02 	lds	r24, 0x020B
 1be:	90 91 0c 02 	lds	r25, 0x020C
 1c2:	01 96       	adiw	r24, 0x01	; 1
	
	if(extraTime1 >= 100){
 1c4:	84 36       	cpi	r24, 0x64	; 100
 1c6:	91 05       	cpc	r25, r1
 1c8:	2c f4       	brge	.+10     	; 0x1d4 <__vector_17+0x28>
}	// END OF Interrupt Timer0
*/

ISR(TIMER1_COMPA_vect)    
{
	extraTime1++;
 1ca:	90 93 0c 02 	sts	0x020C, r25
 1ce:	80 93 0b 02 	sts	0x020B, r24
 1d2:	07 c0       	rjmp	.+14     	; 0x1e2 <__vector_17+0x36>
	
	if(extraTime1 >= 100){
		extraTime1 = 0;
 1d4:	10 92 0c 02 	sts	0x020C, r1
 1d8:	10 92 0b 02 	sts	0x020B, r1
	//Toggle Port;
		PORTB ^= (1 << PORTB7);   // Test Interrupt Timer1 LED ON/OFF Arduino PIN13
 1dc:	85 b1       	in	r24, 0x05	; 5
 1de:	80 58       	subi	r24, 0x80	; 128
 1e0:	85 b9       	out	0x05, r24	; 5
		}
}	// END OF Interrupt Timer1 
 1e2:	9f 91       	pop	r25
 1e4:	8f 91       	pop	r24
 1e6:	0f 90       	pop	r0
 1e8:	0f be       	out	0x3f, r0	; 63
 1ea:	0f 90       	pop	r0
 1ec:	1f 90       	pop	r1
 1ee:	18 95       	reti

000001f0 <_GLOBAL__sub_I_extraTime>:
int extraTime = 0;
int extraTime1 = 0;
char Servo0[]="s0:120\n";    //String[] is in fact an array but when we put the text between the " " symbols the compiler threats it as a String and automatically puts the null termination character in the end of the text
char Servo1[]="s1:160\n";
unsigned char u8TempData=0;
SerialTxRx print(9600);
 1f0:	60 e8       	ldi	r22, 0x80	; 128
 1f2:	75 e2       	ldi	r23, 0x25	; 37
 1f4:	88 e0       	ldi	r24, 0x08	; 8
 1f6:	92 e0       	ldi	r25, 0x02	; 2
 1f8:	05 c0       	rjmp	.+10     	; 0x204 <_ZN10SerialTxRxC1Ej>
 1fa:	08 95       	ret

000001fc <_GLOBAL__sub_D_extraTime>:
 1fc:	88 e0       	ldi	r24, 0x08	; 8
 1fe:	92 e0       	ldi	r25, 0x02	; 2
 200:	5a c0       	rjmp	.+180    	; 0x2b6 <_ZN10SerialTxRxD1Ev>
 202:	08 95       	ret

00000204 <_ZN10SerialTxRxC1Ej>:

#include "SerialTxRx.h"


// default constructor
 SerialTxRx::SerialTxRx(uint16_t Baundrate)
 204:	cf 93       	push	r28
 206:	df 93       	push	r29
 208:	ec 01       	movw	r28, r24
 {
	this->UBRR_VALUE= (((F_CPU / (Baundrate * 16UL))) - 1); // Formula  Datasheet Page 203 Tabelle 22-1
 20a:	cb 01       	movw	r24, r22
 20c:	a0 e0       	ldi	r26, 0x00	; 0
 20e:	b0 e0       	ldi	r27, 0x00	; 0
 210:	88 0f       	add	r24, r24
 212:	99 1f       	adc	r25, r25
 214:	aa 1f       	adc	r26, r26
 216:	bb 1f       	adc	r27, r27
 218:	88 0f       	add	r24, r24
 21a:	99 1f       	adc	r25, r25
 21c:	aa 1f       	adc	r26, r26
 21e:	bb 1f       	adc	r27, r27
 220:	9c 01       	movw	r18, r24
 222:	ad 01       	movw	r20, r26
 224:	22 0f       	add	r18, r18
 226:	33 1f       	adc	r19, r19
 228:	44 1f       	adc	r20, r20
 22a:	55 1f       	adc	r21, r21
 22c:	22 0f       	add	r18, r18
 22e:	33 1f       	adc	r19, r19
 230:	44 1f       	adc	r20, r20
 232:	55 1f       	adc	r21, r21
 234:	60 e0       	ldi	r22, 0x00	; 0
 236:	74 e2       	ldi	r23, 0x24	; 36
 238:	84 ef       	ldi	r24, 0xF4	; 244
 23a:	90 e0       	ldi	r25, 0x00	; 0
 23c:	3d d0       	rcall	.+122    	; 0x2b8 <__udivmodsi4>
 23e:	21 50       	subi	r18, 0x01	; 1
 240:	29 83       	std	Y+1, r18	; 0x01
}//SerialTxRx
 242:	df 91       	pop	r29
 244:	cf 91       	pop	r28
 246:	08 95       	ret

00000248 <_ZN10SerialTxRx10Init_USARTEv>:
 {	
	/*in AVR GCC we can simply assign UBRR_VALUE value to UBRR0 
	OR UBRR0= UBRR_VALUE; 
	and leave to compiler to take care of writing sequence.
	*/
	UBRR0H = UBRR_VALUE>>8;
 248:	10 92 c5 00 	sts	0x00C5, r1
	UBRR0L = UBRR_VALUE;
 24c:	fc 01       	movw	r30, r24
 24e:	81 81       	ldd	r24, Z+1	; 0x01
 250:	80 93 c4 00 	sts	0x00C4, r24
	USART Control and Status Register UCSR0C = 0b00000110 
	*******************************************************
	*/
	
	//enable transmission and reception
	UCSR0B |= (1<<RXEN0)|(1<<TXEN0);
 254:	e1 ec       	ldi	r30, 0xC1	; 193
 256:	f0 e0       	ldi	r31, 0x00	; 0
 258:	80 81       	ld	r24, Z
 25a:	88 61       	ori	r24, 0x18	; 24
 25c:	80 83       	st	Z, r24
	UCSR0C |= (1<<UCSZ01)|(1<<UCSZ00);
 25e:	e2 ec       	ldi	r30, 0xC2	; 194
 260:	f0 e0       	ldi	r31, 0x00	; 0
 262:	80 81       	ld	r24, Z
 264:	86 60       	ori	r24, 0x06	; 6
 266:	80 83       	st	Z, r24
 268:	08 95       	ret

0000026a <_ZN10SerialTxRx13USART_receiveEv>:
	//enable global interrupts
	
}

unsigned char SerialTxRx::USART_receive(void)
{
 26a:	dc 01       	movw	r26, r24
	while((UCSR0A & (1<<RXC0))==0); // Prüfen ,ob bit RCX0 in UCSR0A gesetzt ist  
 26c:	e0 ec       	ldi	r30, 0xC0	; 192
 26e:	f0 e0       	ldi	r31, 0x00	; 0
 270:	80 81       	ld	r24, Z
 272:	88 23       	and	r24, r24
 274:	ec f7       	brge	.-6      	; 0x270 <_ZN10SerialTxRx13USART_receiveEv+0x6>
	// Do nothing until data have been received and is ready to be read from UDR (warten bis Zeichen verfuegbar)
	ReceivedByte= UDR0;
 276:	80 91 c6 00 	lds	r24, 0x00C6
 27a:	8c 93       	st	X, r24
	return ReceivedByte;
	
}
 27c:	08 95       	ret

0000027e <_ZN10SerialTxRx10USART_sendEh>:

void SerialTxRx::USART_send(unsigned char data)
 {
	  while((UCSR0A & (1<<UDRE0))==0);
 27e:	e0 ec       	ldi	r30, 0xC0	; 192
 280:	f0 e0       	ldi	r31, 0x00	; 0
 282:	80 81       	ld	r24, Z
 284:	85 ff       	sbrs	r24, 5
 286:	fd cf       	rjmp	.-6      	; 0x282 <_ZN10SerialTxRx10USART_sendEh+0x4>
	   // Do nothing until UDR is ready for more data to be written to it
	 UDR0 = data;
 288:	60 93 c6 00 	sts	0x00C6, r22
 28c:	08 95       	ret

0000028e <_ZN10SerialTxRx15USART_putstringEPc>:
 }

void SerialTxRx::USART_putstring(char* StringPtr)
{
 28e:	0f 93       	push	r16
 290:	1f 93       	push	r17
 292:	cf 93       	push	r28
 294:	df 93       	push	r29
 296:	8c 01       	movw	r16, r24
 298:	eb 01       	movw	r28, r22
		while(*StringPtr != 0x00){
 29a:	68 81       	ld	r22, Y
 29c:	66 23       	and	r22, r22
 29e:	31 f0       	breq	.+12     	; 0x2ac <_ZN10SerialTxRx15USART_putstringEPc+0x1e>
 2a0:	21 96       	adiw	r28, 0x01	; 1
		USART_send(*StringPtr);
 2a2:	c8 01       	movw	r24, r16
 2a4:	ec df       	rcall	.-40     	; 0x27e <_ZN10SerialTxRx10USART_sendEh>
	 UDR0 = data;
 }

void SerialTxRx::USART_putstring(char* StringPtr)
{
		while(*StringPtr != 0x00){
 2a6:	69 91       	ld	r22, Y+
 2a8:	61 11       	cpse	r22, r1
 2aa:	fb cf       	rjmp	.-10     	; 0x2a2 <_ZN10SerialTxRx15USART_putstringEPc+0x14>
		USART_send(*StringPtr);
		StringPtr++;
		}
}
 2ac:	df 91       	pop	r29
 2ae:	cf 91       	pop	r28
 2b0:	1f 91       	pop	r17
 2b2:	0f 91       	pop	r16
 2b4:	08 95       	ret

000002b6 <_ZN10SerialTxRxD1Ev>:

// default destructor
SerialTxRx::~SerialTxRx()
 2b6:	08 95       	ret

000002b8 <__udivmodsi4>:
 2b8:	a1 e2       	ldi	r26, 0x21	; 33
 2ba:	1a 2e       	mov	r1, r26
 2bc:	aa 1b       	sub	r26, r26
 2be:	bb 1b       	sub	r27, r27
 2c0:	fd 01       	movw	r30, r26
 2c2:	0d c0       	rjmp	.+26     	; 0x2de <__udivmodsi4_ep>

000002c4 <__udivmodsi4_loop>:
 2c4:	aa 1f       	adc	r26, r26
 2c6:	bb 1f       	adc	r27, r27
 2c8:	ee 1f       	adc	r30, r30
 2ca:	ff 1f       	adc	r31, r31
 2cc:	a2 17       	cp	r26, r18
 2ce:	b3 07       	cpc	r27, r19
 2d0:	e4 07       	cpc	r30, r20
 2d2:	f5 07       	cpc	r31, r21
 2d4:	20 f0       	brcs	.+8      	; 0x2de <__udivmodsi4_ep>
 2d6:	a2 1b       	sub	r26, r18
 2d8:	b3 0b       	sbc	r27, r19
 2da:	e4 0b       	sbc	r30, r20
 2dc:	f5 0b       	sbc	r31, r21

000002de <__udivmodsi4_ep>:
 2de:	66 1f       	adc	r22, r22
 2e0:	77 1f       	adc	r23, r23
 2e2:	88 1f       	adc	r24, r24
 2e4:	99 1f       	adc	r25, r25
 2e6:	1a 94       	dec	r1
 2e8:	69 f7       	brne	.-38     	; 0x2c4 <__udivmodsi4_loop>
 2ea:	60 95       	com	r22
 2ec:	70 95       	com	r23
 2ee:	80 95       	com	r24
 2f0:	90 95       	com	r25
 2f2:	9b 01       	movw	r18, r22
 2f4:	ac 01       	movw	r20, r24
 2f6:	bd 01       	movw	r22, r26
 2f8:	cf 01       	movw	r24, r30
 2fa:	08 95       	ret

000002fc <__tablejump_elpm__>:
 2fc:	07 90       	elpm	r0, Z+
 2fe:	f6 91       	elpm	r31, Z
 300:	e0 2d       	mov	r30, r0
 302:	19 94       	eijmp

00000304 <__do_global_dtors>:
 304:	10 e0       	ldi	r17, 0x00	; 0
 306:	c6 ee       	ldi	r28, 0xE6	; 230
 308:	d0 e0       	ldi	r29, 0x00	; 0
 30a:	00 e0       	ldi	r16, 0x00	; 0
 30c:	05 c0       	rjmp	.+10     	; 0x318 <__do_global_dtors+0x14>
 30e:	22 97       	sbiw	r28, 0x02	; 2
 310:	01 09       	sbc	r16, r1
 312:	fe 01       	movw	r30, r28
 314:	0b bf       	out	0x3b, r16	; 59
 316:	f2 df       	rcall	.-28     	; 0x2fc <__tablejump_elpm__>
 318:	c8 3e       	cpi	r28, 0xE8	; 232
 31a:	d1 07       	cpc	r29, r17
 31c:	80 e0       	ldi	r24, 0x00	; 0
 31e:	08 07       	cpc	r16, r24
 320:	b1 f7       	brne	.-20     	; 0x30e <__do_global_dtors+0xa>
 322:	f8 94       	cli

00000324 <__stop_program>:
 324:	ff cf       	rjmp	.-2      	; 0x324 <__stop_program>
